; Function Attrs: mustprogress nounwind uwtable
define internal void @_ZN3gmx26StringToEnumValueConverterI12ParticleTypeXadL_ZL25enumValueToLetterAsStringS1_EELNS_17StringCompareTypeE1ELNS_12StripStringsE0EED2Ev(ptr noundef nonnull align 8 dereferenceable(48) %0) unnamed_addr #2 align 2 personality ptr @__gxx_personality_v0 {
  %2 = getelementptr inbounds i8, ptr %0, i64 16
  %3 = load ptr, ptr %2, align 8
  invoke void @_ZNSt8_Rb_treeINSt7__cxx1112basic_stringIcSt11char_traitsIcESaIcEEESt4pairIKS5_12ParticleTypeESt10_Select1stIS9_EN3gmx13StringCompareESaIS9_EE8_M_eraseEPSt13_Rb_tree_nodeIS9_E(ptr noundef nonnull align 8 dereferenceable(48) %0, ptr noundef %3)
          to label %_ZNSt3mapINSt7__cxx1112basic_stringIcSt11char_traitsIcESaIcEEE12ParticleTypeN3gmx13StringCompareESaISt4pairIKS5_S6_EEED2Ev.exit unwind label %4

4:                                                ; preds = %1
  %5 = landingpad { ptr, i32 }
          catch ptr null
  %6 = extractvalue { ptr, i32 } %5, 0
  tail call void @__clang_call_terminate(ptr %6) #26
  unreachable

_ZNSt3mapINSt7__cxx1112basic_stringIcSt11char_traitsIcESaIcEEE12ParticleTypeN3gmx13StringCompareESaISt4pairIKS5_S6_EEED2Ev.exit: ; preds = %1
  ret void
}